target datalayout = "e-m:e-p270:32:32-p271:32:32-p272:64:64-i64:64-i128:128-f80:128-n8:16:32:64-S128"
target triple = "x86_64-pc-linux-gnu"

%"class.ceres::LossFunction" = type { ptr }
%"class.ceres::SoftLOneLoss" = type { %"class.ceres::LossFunction", double, double }

; Function Attrs: inlinehint mustprogress nounwind uwtable
define linkonce_odr noundef nonnull align 8 dereferenceable(8) ptr @_ZSt3maxIdERKT_S2_S2_(ptr noundef nonnull align 8 dereferenceable(8) %0, ptr noundef nonnull align 8 dereferenceable(8) %1) #6 comdat {
  %3 = alloca ptr, align 8
  %4 = alloca ptr, align 8
  %5 = alloca ptr, align 8
  store ptr %0, ptr %4, align 8, !tbaa !12
  store ptr %1, ptr %5, align 8, !tbaa !12
  %6 = load ptr, ptr %4, align 8, !tbaa !12
  %7 = load double, ptr %6, align 8, !tbaa !10
  %8 = load ptr, ptr %5, align 8, !tbaa !12
  %9 = load double, ptr %8, align 8, !tbaa !10
  %10 = fcmp olt double %7, %9
  br i1 %10, label %11, label %13

11:                                               ; preds = %2
  %12 = load ptr, ptr %5, align 8, !tbaa !12
  store ptr %12, ptr %3, align 8
  br label %15

13:                                               ; preds = %2
  %14 = load ptr, ptr %4, align 8, !tbaa !12
  store ptr %14, ptr %3, align 8
  br label %15

15:                                               ; preds = %13, %11
  %16 = load ptr, ptr %3, align 8
  ret ptr %16
}

; Function Attrs: mustprogress nounwind uwtable
define linkonce_odr hidden noundef double @_ZNSt14numeric_limitsIdE3minEv() #0 comdat align 2 {
  ret double 0x10000000000000
}

; Function Attrs: mustprogress uwtable
define hidden void @_ZNK5ceres12SoftLOneLoss8EvaluateEdPd(ptr noundef nonnull align 8 dereferenceable(24) %0, double noundef %1, ptr noundef %2) unnamed_addr #2 align 2 {
  %4 = alloca ptr, align 8
  %5 = alloca double, align 8
  %6 = alloca ptr, align 8
  %7 = alloca double, align 8
  %8 = alloca double, align 8
  %9 = alloca double, align 8
  %10 = alloca double, align 8
  store ptr %0, ptr %4, align 8, !tbaa !22
  store double %1, ptr %5, align 8, !tbaa !10
  store ptr %2, ptr %6, align 8, !tbaa !12
  %11 = load ptr, ptr %4, align 8
  call void @llvm.lifetime.start.p0(i64 8, ptr %7) #15
  %12 = load double, ptr %5, align 8, !tbaa !10
  %13 = getelementptr inbounds nuw %"class.ceres::SoftLOneLoss", ptr %11, i32 0, i32 2
  %14 = load double, ptr %13, align 8, !tbaa !24
  %15 = call double @llvm.fmuladd.f64(double %12, double %14, double 1.000000e+00)
  store double %15, ptr %7, align 8, !tbaa !10
  call void @llvm.lifetime.start.p0(i64 8, ptr %8) #15
  %16 = load double, ptr %7, align 8, !tbaa !10
  %17 = call double @sqrt(double noundef %16) #15, !tbaa !19
  store double %17, ptr %8, align 8, !tbaa !10
  %18 = getelementptr inbounds nuw %"class.ceres::SoftLOneLoss", ptr %11, i32 0, i32 1
  %19 = load double, ptr %18, align 8, !tbaa !26
  %20 = fmul double 2.000000e+00, %19
  %21 = load double, ptr %8, align 8, !tbaa !10
  %22 = fsub double %21, 1.000000e+00
  %23 = fmul double %20, %22
  %24 = load ptr, ptr %6, align 8, !tbaa !12
  %25 = getelementptr inbounds double, ptr %24, i64 0
  store double %23, ptr %25, align 8, !tbaa !10
  call void @llvm.lifetime.start.p0(i64 8, ptr %9) #15
  %26 = call noundef double @_ZNSt14numeric_limitsIdE3minEv() #15
  store double %26, ptr %9, align 8, !tbaa !10
  call void @llvm.lifetime.start.p0(i64 8, ptr %10) #15
  %27 = load double, ptr %8, align 8, !tbaa !10
  %28 = fdiv double 1.000000e+00, %27
  store double %28, ptr %10, align 8, !tbaa !10
  %29 = call noundef nonnull align 8 dereferenceable(8) ptr @_ZSt3maxIdERKT_S2_S2_(ptr noundef nonnull align 8 dereferenceable(8) %9, ptr noundef nonnull align 8 dereferenceable(8) %10)
  %30 = load double, ptr %29, align 8, !tbaa !10
  %31 = load ptr, ptr %6, align 8, !tbaa !12
  %32 = getelementptr inbounds double, ptr %31, i64 1
  store double %30, ptr %32, align 8, !tbaa !10
  call void @llvm.lifetime.end.p0(i64 8, ptr %10) #15
  call void @llvm.lifetime.end.p0(i64 8, ptr %9) #15
  %33 = getelementptr inbounds nuw %"class.ceres::SoftLOneLoss", ptr %11, i32 0, i32 2
  %34 = load double, ptr %33, align 8, !tbaa !24
  %35 = load ptr, ptr %6, align 8, !tbaa !12
  %36 = getelementptr inbounds double, ptr %35, i64 1
  %37 = load double, ptr %36, align 8, !tbaa !10
  %38 = fmul double %34, %37
  %39 = fneg double %38
  %40 = load double, ptr %7, align 8, !tbaa !10
  %41 = fmul double 2.000000e+00, %40
  %42 = fdiv double %39, %41
  %43 = load ptr, ptr %6, align 8, !tbaa !12
  %44 = getelementptr inbounds double, ptr %43, i64 2
  store double %42, ptr %44, align 8, !tbaa !10
  call void @llvm.lifetime.end.p0(i64 8, ptr %8) #15
  call void @llvm.lifetime.end.p0(i64 8, ptr %7) #15
  ret void
}