; Function Attrs: mustprogress nofree nounwind willreturn memory(write, argmem: readwrite) uwtable
define hidden void @_ZNK5ceres12SoftLOneLoss8EvaluateEdPd(ptr noundef nonnull readonly align 8 captures(none) dereferenceable(24) %0, double noundef %1, ptr noundef writeonly captures(none) initializes((0, 24)) %2) unnamed_addr #3 align 2 {
  %4 = getelementptr inbounds nuw i8, ptr %0, i64 16
  %5 = load double, ptr %4, align 8, !tbaa !13
  %6 = tail call double @llvm.fmuladd.f64(double %1, double %5, double 1.000000e+00)
  %7 = tail call double @sqrt(double noundef %6) #17, !tbaa !10
  %8 = getelementptr inbounds nuw i8, ptr %0, i64 8
  %9 = load double, ptr %8, align 8, !tbaa !15
  %10 = fmul double %9, 2.000000e+00
  %11 = fadd double %7, -1.000000e+00
  %12 = fmul double %11, %10
  store double %12, ptr %2, align 8, !tbaa !3
  %13 = fdiv double 1.000000e+00, %7
  %14 = fcmp ogt double %13, 0x10000000000000
  %.sroa.speculated = select i1 %14, double %13, double 0x10000000000000
  %15 = getelementptr inbounds nuw i8, ptr %2, i64 8
  store double %.sroa.speculated, ptr %15, align 8, !tbaa !3
  %16 = load double, ptr %4, align 8, !tbaa !13
  %17 = fneg double %.sroa.speculated
  %18 = fmul double %16, %17
  %19 = fmul double %6, 2.000000e+00
  %20 = fdiv double %18, %19
  %21 = getelementptr inbounds nuw i8, ptr %2, i64 16
  store double %20, ptr %21, align 8, !tbaa !3
  ret void
}